target datalayout = "e-m:e-p270:32:32-p271:32:32-p272:64:64-i64:64-i128:128-f80:128-n8:16:32:64-S128"
target triple = "x86_64-unknown-linux-gnu"

@parse_vorbis_comment_field_name.violations = internal constant [1 x ptr] [ptr @.str.89], align 8

; Function Attrs: nounwind sspstrong uwtable
define internal i32 @parse_vorbis_comment_field_name(ptr noundef %field_ref, ptr noundef %name, ptr noundef %violation) #0 {
entry:
  %retval = alloca i32, align 4
  %field_ref.addr = alloca ptr, align 8
  %name.addr = alloca ptr, align 8
  %violation.addr = alloca ptr, align 8
  %q = alloca ptr, align 8
  %s = alloca ptr, align 8
  store ptr %field_ref, ptr %field_ref.addr, align 8
  store ptr %name, ptr %name.addr, align 8
  store ptr %violation, ptr %violation.addr, align 8
  %0 = load ptr, ptr %field_ref.addr, align 8
  %call = call ptr @local_strdup(ptr noundef %0)
  store ptr %call, ptr %s, align 8
  %1 = load ptr, ptr %s, align 8
  store ptr %1, ptr %q, align 8
  br label %for.cond

for.cond:                                         ; preds = %for.inc, %entry
  %2 = load ptr, ptr %q, align 8
  %3 = load i8, ptr %2, align 1
  %tobool = icmp ne i8 %3, 0
  br i1 %tobool, label %for.body, label %for.end

for.body:                                         ; preds = %for.cond
  %4 = load ptr, ptr %q, align 8
  %5 = load i8, ptr %4, align 1
  %conv = sext i8 %5 to i32
  %cmp = icmp slt i32 %conv, 32
  br i1 %cmp, label %if.then, label %lor.lhs.false

lor.lhs.false:                                    ; preds = %for.body
  %6 = load ptr, ptr %q, align 8
  %7 = load i8, ptr %6, align 1
  %conv2 = sext i8 %7 to i32
  %cmp3 = icmp sgt i32 %conv2, 125
  br i1 %cmp3, label %if.then, label %lor.lhs.false5

lor.lhs.false5:                                   ; preds = %lor.lhs.false
  %8 = load ptr, ptr %q, align 8
  %9 = load i8, ptr %8, align 1
  %conv6 = sext i8 %9 to i32
  %cmp7 = icmp eq i32 %conv6, 61
  br i1 %cmp7, label %if.then, label %if.end

if.then:                                          ; preds = %lor.lhs.false5, %lor.lhs.false, %for.body
  %10 = load ptr, ptr %s, align 8
  call void @free(ptr noundef %10) #10
  %11 = load ptr, ptr @parse_vorbis_comment_field_name.violations, align 8
  %12 = load ptr, ptr %violation.addr, align 8
  store ptr %11, ptr %12, align 8
  store i32 0, ptr %retval, align 4
  br label %return

if.end:                                           ; preds = %lor.lhs.false5
  br label %for.inc

for.inc:                                          ; preds = %if.end
  %13 = load ptr, ptr %q, align 8
  %incdec.ptr = getelementptr inbounds i8, ptr %13, i32 1
  store ptr %incdec.ptr, ptr %q, align 8
  br label %for.cond, !llvm.loop !14

for.end:                                          ; preds = %for.cond
  %14 = load ptr, ptr %s, align 8
  %15 = load ptr, ptr %name.addr, align 8
  store ptr %14, ptr %15, align 8
  store i32 1, ptr %retval, align 4
  br label %return

return:                                           ; preds = %for.end, %if.then
  %16 = load i32, ptr %retval, align 4
  ret i32 %16
}