; Function Attrs: nounwind sspstrong uwtable
define internal fastcc range(i32 0, 2) i32 @parse_vorbis_comment_field_name(ptr noundef %field_ref, ptr noundef writeonly captures(none) %name, ptr noundef nonnull writeonly captures(none) %violation) unnamed_addr #1 {
entry:
  %call = tail call ptr @local_strdup(ptr noundef %field_ref) #20
  %0 = load i8, ptr %call, align 1
  %.fr8 = freeze i8 %0
  %tobool.not9 = icmp eq i8 %.fr8, 0
  br i1 %tobool.not9, label %for.end, label %for.body

for.body:                                         ; preds = %entry, %for.inc
  %.fr11 = phi i8 [ %.fr, %for.inc ], [ %.fr8, %entry ]
  %q.010 = phi ptr [ %incdec.ptr, %for.inc ], [ %call, %entry ]
  %cmp = icmp slt i8 %.fr11, 32
  br i1 %cmp, label %if.then, label %switch.early.test

switch.early.test:                                ; preds = %for.body
  switch i8 %.fr11, label %for.inc [
    i8 127, label %if.then
    i8 126, label %if.then
    i8 61, label %if.then
  ]

if.then:                                          ; preds = %switch.early.test, %switch.early.test, %switch.early.test, %for.body
  tail call void @free(ptr noundef %call) #20
  store ptr @.str.89, ptr %violation, align 8
  br label %return

for.inc:                                          ; preds = %switch.early.test
  %incdec.ptr = getelementptr inbounds nuw i8, ptr %q.010, i64 1
  %1 = load i8, ptr %incdec.ptr, align 1
  %.fr = freeze i8 %1
  %tobool.not = icmp eq i8 %.fr, 0
  br i1 %tobool.not, label %for.end, label %for.body, !llvm.loop !15

for.end:                                          ; preds = %for.inc, %entry
  store ptr %call, ptr %name, align 8
  br label %return

return:                                           ; preds = %for.end, %if.then
  %retval.0 = phi i32 [ 0, %if.then ], [ 1, %for.end ]
  ret i32 %retval.0
}